target datalayout = "e-m:e-p270:32:32-p271:32:32-p272:64:64-i64:64-i128:128-f80:128-n8:16:32:64-S128"
target triple = "x86_64-pc-linux-gnu"

%"class.Assimp::DeboneProcess" = type { %"class.Assimp::BaseProcess", i32, i32, float, i8, %"class.std::vector" }
%"class.Assimp::BaseProcess" = type { ptr, ptr, ptr }
%"class.std::vector" = type { %"struct.std::_Vector_base" }
%"struct.std::_Vector_base" = type { %"struct.std::_Vector_base<std::vector<std::pair<unsigned int, aiNode *>>, std::allocator<std::vector<std::pair<unsigned int, aiNode *>>>>::_Vector_impl" }
%"struct.std::_Vector_base<std::vector<std::pair<unsigned int, aiNode *>>, std::allocator<std::vector<std::pair<unsigned int, aiNode *>>>>::_Vector_impl" = type { %"struct.std::_Vector_base<std::vector<std::pair<unsigned int, aiNode *>>, std::allocator<std::vector<std::pair<unsigned int, aiNode *>>>>::_Vector_impl_data" }
%"struct.std::_Vector_base<std::vector<std::pair<unsigned int, aiNode *>>, std::allocator<std::vector<std::pair<unsigned int, aiNode *>>>>::_Vector_impl_data" = type { ptr, ptr, ptr }

@.str = private unnamed_addr constant [18 x i8] c"PP_DB_ALL_OR_NONE\00", align 1
@.str.1 = private unnamed_addr constant [16 x i8] c"PP_DB_THRESHOLD\00", align 1

; Function Attrs: mustprogress uwtable
define hidden void @_ZN6Assimp13DeboneProcess15SetupPropertiesEPKNS_8ImporterE(ptr noundef nonnull align 8 dereferenceable(64) %0, ptr noundef %1) unnamed_addr #2 align 2 {
  %3 = alloca ptr, align 8
  %4 = alloca ptr, align 8
  store ptr %0, ptr %3, align 8
  store ptr %1, ptr %4, align 8
  %5 = load ptr, ptr %3, align 8
  %6 = load ptr, ptr %4, align 8
  %7 = call noundef i32 @_ZNK6Assimp8Importer18GetPropertyIntegerEPKci(ptr noundef nonnull align 8 dereferenceable(8) %6, ptr noundef @.str, i32 noundef 0)
  %8 = icmp ne i32 %7, 0
  %9 = select i1 %8, i1 true, i1 false
  %10 = getelementptr inbounds nuw %"class.Assimp::DeboneProcess", ptr %5, i32 0, i32 4
  %11 = zext i1 %9 to i8
  store i8 %11, ptr %10, align 4
  %12 = load ptr, ptr %4, align 8
  %13 = call noundef float @_ZNK6Assimp8Importer16GetPropertyFloatEPKcf(ptr noundef nonnull align 8 dereferenceable(8) %12, ptr noundef @.str.1, float noundef 1.000000e+00)
  %14 = getelementptr inbounds nuw %"class.Assimp::DeboneProcess", ptr %5, i32 0, i32 3
  store float %13, ptr %14, align 8
  ret void
}