; Function Attrs: mustprogress uwtable
define hidden void @_ZN6Assimp13DeboneProcess15SetupPropertiesEPKNS_8ImporterE(ptr noundef nonnull writeonly align 8 captures(none) dereferenceable(64) initializes((32, 37)) %0, ptr noundef nonnull %1) unnamed_addr #3 align 2 {
  %3 = tail call noundef i32 @_ZNK6Assimp8Importer18GetPropertyIntegerEPKci(ptr noundef nonnull align 8 dereferenceable(8) %1, ptr noundef nonnull @.str, i32 noundef 0)
  %4 = icmp ne i32 %3, 0
  %5 = getelementptr inbounds nuw i8, ptr %0, i64 36
  %6 = zext i1 %4 to i8
  store i8 %6, ptr %5, align 4
  %7 = tail call noundef float @_ZNK6Assimp8Importer16GetPropertyFloatEPKcf(ptr noundef nonnull align 8 dereferenceable(8) %1, ptr noundef nonnull @.str.1, float noundef 1.000000e+00)
  %8 = getelementptr inbounds nuw i8, ptr %0, i64 32
  store float %7, ptr %8, align 8
  ret void
}